	.file	"sbi.c"
	.option nopic
	.attribute arch, "rv64i2p0_m2p0_a2p0_f2p0_d2p0"
	.attribute unaligned_access, 0
	.attribute stack_align, 16
	.text
.Ltext0:
	.cfi_sections	.debug_frame
	.section	.text.sbi_ecall,"ax",@progbits
	.align	2
	.globl	sbi_ecall
	.type	sbi_ecall, @function
sbi_ecall:
.LFB0:
	.file 1 "sbi.c"
	.loc 1 9 1
	.cfi_startproc
	addi	sp,sp,-112
	.cfi_def_cfa_offset 112
	sd	s0,104(sp)
	.cfi_offset 8, -8
	addi	s0,sp,112
	.cfi_def_cfa 8, 0
	sd	a2,-64(s0)
	sd	a3,-72(s0)
	sd	a4,-80(s0)
	sd	a5,-88(s0)
	sd	a6,-96(s0)
	sd	a7,-104(s0)
	mv	a5,a0
	sw	a5,-52(s0)
	mv	a5,a1
	sw	a5,-56(s0)
	.loc 1 13 18
	ld	a0,-64(s0)
	.loc 1 14 18
	ld	a1,-72(s0)
	.loc 1 15 18
	ld	a2,-80(s0)
	.loc 1 16 18
	ld	a3,-88(s0)
	.loc 1 17 18
	ld	a4,-96(s0)
	.loc 1 18 18
	ld	a5,-104(s0)
	.loc 1 19 34
	lw	a6,-56(s0)
	.loc 1 20 34
	lw	a7,-52(s0)
	.loc 1 23 2
 #APP
# 23 "sbi.c" 1
	ecall
# 0 "" 2
	.loc 1 31 11
 #NO_APP
	mv	a5,a0
	sd	a5,-48(s0)
	.loc 1 32 11
	mv	a5,a1
	sd	a5,-40(s0)
	.loc 1 34 9
	ld	a5,-48(s0)
	sd	a5,-32(s0)
	ld	a5,-40(s0)
	sd	a5,-24(s0)
	ld	a4,-32(s0)
	ld	a5,-24(s0)
	mv	t1,a4
	mv	t2,a5
	mv	a4,t1
	mv	a5,t2
	.loc 1 35 1
	mv	a0,a4
	mv	a1,a5
	ld	s0,104(sp)
	.cfi_restore 8
	.cfi_def_cfa 2, 112
	addi	sp,sp,112
	.cfi_def_cfa_offset 0
	jr	ra
	.cfi_endproc
.LFE0:
	.size	sbi_ecall, .-sbi_ecall
	.text
.Letext0:
	.file 2 "/home/kuroneko/lab1/lab2/arch/riscv/include/sbi.h"
	.file 3 "/home/kuroneko/lab1/lab2/include/types.h"