	.file	"trap.c"
	.option nopic
	.attribute arch, "rv64i2p0_m2p0_a2p0_f2p0_d2p0"
	.attribute unaligned_access, 0
	.attribute stack_align, 16
	.text
.Ltext0:
	.cfi_sections	.debug_frame
	.section	.rodata
	.align	3
.LC0:
	.string	"[S] Supervisor Mode Timer Interrupt\n"
	.section	.text.handler_interrupt,"ax",@progbits
	.align	2
	.globl	handler_interrupt
	.type	handler_interrupt, @function
handler_interrupt:
.LFB0:
	.file 1 "trap.c"
	.loc 1 9 1
	.cfi_startproc
	addi	sp,sp,-48
	.cfi_def_cfa_offset 48
	sd	ra,40(sp)
	sd	s0,32(sp)
	.cfi_offset 1, -8
	.cfi_offset 8, -16
	addi	s0,sp,48
	.cfi_def_cfa 8, 0
	sd	a0,-24(s0)
	sd	a1,-32(s0)
	sd	a2,-40(s0)
	.loc 1 10 19
	ld	a4,-24(s0)
	li	a5,-1
	srli	a5,a5,1
	and	a4,a4,a5
	.loc 1 10 5
	li	a5,5
	bne	a4,a5,.L4
	.loc 1 13 13
	lla	a0,.LC0
	call	printk
	.loc 1 14 13
	call	clock_set_next_event
	.loc 1 15 13
	j	.L3
.L4:
	.loc 1 17 13
	nop
.L3:
	.loc 1 19 1
	nop
	ld	ra,40(sp)
	.cfi_restore 1
	ld	s0,32(sp)
	.cfi_restore 8
	.cfi_def_cfa 2, 48
	addi	sp,sp,48
	.cfi_def_cfa_offset 0
	jr	ra
	.cfi_endproc
.LFE0:
	.size	handler_interrupt, .-handler_interrupt
	.section	.text.handler_exception,"ax",@progbits
	.align	2
	.globl	handler_exception
	.type	handler_exception, @function
handler_exception:
.LFB1:
	.loc 1 21 65
	.cfi_startproc
	addi	sp,sp,-48
	.cfi_def_cfa_offset 48
	sd	s0,40(sp)
	.cfi_offset 8, -8
	addi	s0,sp,48
	.cfi_def_cfa 8, 0
	sd	a0,-24(s0)
	sd	a1,-32(s0)
	sd	a2,-40(s0)
	.loc 1 22 1
	nop
	ld	s0,40(sp)
	.cfi_restore 8
	.cfi_def_cfa 2, 48
	addi	sp,sp,48
	.cfi_def_cfa_offset 0
	jr	ra
	.cfi_endproc
.LFE1:
	.size	handler_exception, .-handler_exception
	.section	.text.trap_handler,"ax",@progbits
	.align	2
	.globl	trap_handler
	.type	trap_handler, @function
trap_handler:
.LFB2:
	.loc 1 25 1
	.cfi_startproc
	addi	sp,sp,-48
	.cfi_def_cfa_offset 48
	sd	ra,40(sp)
	sd	s0,32(sp)
	.cfi_offset 1, -8
	.cfi_offset 8, -16
	addi	s0,sp,48
	.cfi_def_cfa 8, 0
	sd	a0,-24(s0)
	sd	a1,-32(s0)
	sd	a2,-40(s0)
	.loc 1 27 8
	ld	a5,-24(s0)
	.loc 1 27 7
	bge	a5,zero,.L7
	.loc 1 28 9
	ld	a2,-40(s0)
	ld	a1,-32(s0)
	ld	a0,-24(s0)
	call	handler_interrupt
	.loc 1 31 1
	j	.L9
.L7:
	.loc 1 30 9
	ld	a2,-40(s0)
	ld	a1,-32(s0)
	ld	a0,-24(s0)
	call	handler_exception
.L9:
	.loc 1 31 1
	nop
	ld	ra,40(sp)
	.cfi_restore 1
	ld	s0,32(sp)
	.cfi_restore 8
	.cfi_def_cfa 2, 48
	addi	sp,sp,48
	.cfi_def_cfa_offset 0
	jr	ra
	.cfi_endproc
.LFE2:
	.size	trap_handler, .-trap_handler
	.text
.Letext0:
	.file 2 "/home/kuroneko/lab1/lab2/include/types.h"
	.file 3 "/home/kuroneko/lab1/lab2/include/clock.h"
	.file 4 "/home/kuroneko/lab1/lab2/include/print.h"