	.file	"main.c"
	.option nopic
	.attribute arch, "rv64i2p0_m2p0_a2p0_f2p0_d2p0"
	.attribute unaligned_access, 0
	.attribute stack_align, 16
	.text
.Ltext0:
	.cfi_sections	.debug_frame
	.section	.rodata
	.align	3
.LC0:
	.string	"Kernel is running normally"
	.section	.text.start_kernel,"ax",@progbits
	.align	2
	.globl	start_kernel
	.type	start_kernel, @function
start_kernel:
.LFB0:
	.file 1 "main.c"
	.loc 1 7 1
	.cfi_startproc
	addi	sp,sp,-16
	.cfi_def_cfa_offset 16
	sd	ra,8(sp)
	sd	s0,0(sp)
	.cfi_offset 1, -8
	.cfi_offset 8, -16
	addi	s0,sp,16
	.cfi_def_cfa 8, 0
	.loc 1 8 5
	lla	a0,.LC0
	call	printk
	.loc 1 9 5
	call	test
	.loc 1 11 9
	li	a5,0
	.loc 1 12 1
	mv	a0,a5
	ld	ra,8(sp)
	.cfi_restore 1
	ld	s0,0(sp)
	.cfi_restore 8
	.cfi_def_cfa 2, 16
	addi	sp,sp,16
	.cfi_def_cfa_offset 0
	jr	ra
	.cfi_endproc
.LFE0:
	.size	start_kernel, .-start_kernel
	.text
.Letext0:
	.file 2 "/home/kuroneko/lab1/lab2/include/print.h"